target datalayout = "e-m:e-p270:32:32-p271:32:32-p272:64:64-i64:64-i128:128-f80:128-n8:16:32:64-S128"
target triple = "x86_64-pc-linux-gnu"

%"class.net::QuicPacketGenerator" = type { ptr, %"class.net::QuicPacketCreator", %"class.std::vector", i8, i8, i8, [5 x i8], %"struct.net::QuicAckFrame", %"struct.net::QuicStopWaitingFrame" }
%"class.net::QuicPacketCreator" = type { ptr, ptr, ptr, %"class.net::QuicPacketCreator::QuicRandomBoolSource", ptr, i8, i8, i8, i8, %"struct.std::array", i64, i64, i32, %"class.std::vector", i64, i64, %"struct.net::SerializedPacket", %"class.std::unordered_map" }
%"class.net::QuicPacketCreator::QuicRandomBoolSource" = type { ptr, i64, i64 }
%"struct.std::array" = type { [32 x i8] }
%"struct.net::SerializedPacket" = type { ptr, i16, %"class.std::vector", i8, i16, i8, i64, i8, i8, i8, i8, i8, i8, i8, i64, %"class.std::__cxx11::list" }
%"class.std::__cxx11::list" = type { %"class.std::__cxx11::_List_base" }
%"class.std::__cxx11::_List_base" = type { %"struct.std::__cxx11::_List_base<net::AckListenerWrapper, std::allocator<net::AckListenerWrapper>>::_List_impl" }
%"struct.std::__cxx11::_List_base<net::AckListenerWrapper, std::allocator<net::AckListenerWrapper>>::_List_impl" = type { %"struct.std::__detail::_List_node_header" }
%"struct.std::__detail::_List_node_header" = type { %"struct.std::__detail::_List_node_base", i64 }
%"struct.std::__detail::_List_node_base" = type { ptr, ptr }
%"class.std::unordered_map" = type { %"class.std::_Hashtable" }
%"class.std::_Hashtable" = type { ptr, i64, %"struct.std::__detail::_Hash_node_base", i64, %"struct.std::__detail::_Prime_rehash_policy", ptr }
%"struct.std::__detail::_Hash_node_base" = type { ptr }
%"struct.std::__detail::_Prime_rehash_policy" = type { float, i64 }
%"class.std::vector" = type { %"struct.std::_Vector_base" }
%"struct.std::_Vector_base" = type { %"struct.std::_Vector_base<net::QuicFrame, std::allocator<net::QuicFrame>>::_Vector_impl" }
%"struct.std::_Vector_base<net::QuicFrame, std::allocator<net::QuicFrame>>::_Vector_impl" = type { %"struct.std::_Vector_base<net::QuicFrame, std::allocator<net::QuicFrame>>::_Vector_impl_data" }
%"struct.std::_Vector_base<net::QuicFrame, std::allocator<net::QuicFrame>>::_Vector_impl_data" = type { ptr, ptr, ptr }
%"struct.net::QuicAckFrame" = type <{ i64, %"class.net::QuicTime::Delta", %"class.std::vector.8", %"class.net::PacketNumberQueue", i8, i8, i8, i8, [4 x i8] }>
%"class.net::QuicTime::Delta" = type { %"class.base::TimeDelta", i64 }
%"class.base::TimeDelta" = type { i64 }
%"class.std::vector.8" = type { %"struct.std::_Vector_base.9" }
%"struct.std::_Vector_base.9" = type { %"struct.std::_Vector_base<std::pair<unsigned long, net::QuicTime>, std::allocator<std::pair<unsigned long, net::QuicTime>>>::_Vector_impl" }
%"struct.std::_Vector_base<std::pair<unsigned long, net::QuicTime>, std::allocator<std::pair<unsigned long, net::QuicTime>>>::_Vector_impl" = type { %"struct.std::_Vector_base<std::pair<unsigned long, net::QuicTime>, std::allocator<std::pair<unsigned long, net::QuicTime>>>::_Vector_impl_data" }
%"struct.std::_Vector_base<std::pair<unsigned long, net::QuicTime>, std::allocator<std::pair<unsigned long, net::QuicTime>>>::_Vector_impl_data" = type { ptr, ptr, ptr }
%"class.net::PacketNumberQueue" = type { %"class.net::IntervalSet" }
%"class.net::IntervalSet" = type { %"class.std::set" }
%"class.std::set" = type { %"class.std::_Rb_tree" }
%"class.std::_Rb_tree" = type { %"struct.std::_Rb_tree<net::Interval<unsigned long>, net::Interval<unsigned long>, std::_Identity<net::Interval<unsigned long>>, net::IntervalSet<unsigned long>::IntervalComparator>::_Rb_tree_impl" }
%"struct.std::_Rb_tree<net::Interval<unsigned long>, net::Interval<unsigned long>, std::_Identity<net::Interval<unsigned long>>, net::IntervalSet<unsigned long>::IntervalComparator>::_Rb_tree_impl" = type { [8 x i8], %"struct.std::_Rb_tree_header" }
%"struct.std::_Rb_tree_header" = type { %"struct.std::_Rb_tree_node_base", i64 }
%"struct.std::_Rb_tree_node_base" = type { i32, ptr, ptr, ptr }
%"struct.net::QuicStopWaitingFrame" = type { i8, i8, i64 }
%"class.__gnu_cxx::__normal_iterator.27" = type { ptr }

; Function Attrs: mustprogress nounwind uwtable
define linkonce_odr noundef nonnull align 8 dereferenceable(8) ptr @_ZNK9__gnu_cxx17__normal_iteratorIPKN3net9QuicFrameESt6vectorIS2_SaIS2_EEE4baseEv(ptr noundef nonnull align 8 dereferenceable(8) %0) #2 comdat align 2 {
  %2 = alloca ptr, align 8
  store ptr %0, ptr %2, align 8, !tbaa !181
  %3 = load ptr, ptr %2, align 8
  %4 = getelementptr inbounds nuw %"class.__gnu_cxx::__normal_iterator.27", ptr %3, i32 0, i32 0
  ret ptr %4
}

; Function Attrs: mustprogress nounwind uwtable
define linkonce_odr void @_ZN9__gnu_cxx17__normal_iteratorIPKN3net9QuicFrameESt6vectorIS2_SaIS2_EEEC2ERKS4_(ptr noundef nonnull align 8 dereferenceable(8) %0, ptr noundef nonnull align 8 dereferenceable(8) %1) unnamed_addr #2 comdat align 2 {
  %3 = alloca ptr, align 8
  %4 = alloca ptr, align 8
  store ptr %0, ptr %3, align 8, !tbaa !181
  store ptr %1, ptr %4, align 8, !tbaa !175
  %5 = load ptr, ptr %3, align 8
  %6 = getelementptr inbounds nuw %"class.__gnu_cxx::__normal_iterator.27", ptr %5, i32 0, i32 0
  %7 = load ptr, ptr %4, align 8, !tbaa !175
  %8 = load ptr, ptr %7, align 8, !tbaa !97
  store ptr %8, ptr %6, align 8, !tbaa !183
  ret void
}

; Function Attrs: inlinehint mustprogress nounwind uwtable
define linkonce_odr noundef zeroext i1 @_ZN9__gnu_cxxeqIPKN3net9QuicFrameESt6vectorIS2_SaIS2_EEEEbRKNS_17__normal_iteratorIT_T0_EESD_(ptr noundef nonnull align 8 dereferenceable(8) %0, ptr noundef nonnull align 8 dereferenceable(8) %1) #8 comdat {
  %3 = alloca ptr, align 8
  %4 = alloca ptr, align 8
  store ptr %0, ptr %3, align 8, !tbaa !181
  store ptr %1, ptr %4, align 8, !tbaa !181
  %5 = load ptr, ptr %3, align 8, !tbaa !181
  %6 = call noundef nonnull align 8 dereferenceable(8) ptr @_ZNK9__gnu_cxx17__normal_iteratorIPKN3net9QuicFrameESt6vectorIS2_SaIS2_EEE4baseEv(ptr noundef nonnull align 8 dereferenceable(8) %5) #13
  %7 = load ptr, ptr %6, align 8, !tbaa !97
  %8 = load ptr, ptr %4, align 8, !tbaa !181
  %9 = call noundef nonnull align 8 dereferenceable(8) ptr @_ZNK9__gnu_cxx17__normal_iteratorIPKN3net9QuicFrameESt6vectorIS2_SaIS2_EEE4baseEv(ptr noundef nonnull align 8 dereferenceable(8) %8) #13
  %10 = load ptr, ptr %9, align 8, !tbaa !97
  %11 = icmp eq ptr %7, %10
  ret i1 %11
}

; Function Attrs: mustprogress nounwind uwtable
define linkonce_odr ptr @_ZNKSt6vectorIN3net9QuicFrameESaIS1_EE3endEv(ptr noundef nonnull align 8 dereferenceable(24) %0) #2 comdat align 2 {
  %2 = alloca %"class.__gnu_cxx::__normal_iterator.27", align 8
  %3 = alloca ptr, align 8
  store ptr %0, ptr %3, align 8, !tbaa !75
  %4 = load ptr, ptr %3, align 8
  %5 = getelementptr inbounds nuw %"struct.std::_Vector_base", ptr %4, i32 0, i32 0
  %6 = getelementptr inbounds nuw %"struct.std::_Vector_base<net::QuicFrame, std::allocator<net::QuicFrame>>::_Vector_impl_data", ptr %5, i32 0, i32 1
  call void @_ZN9__gnu_cxx17__normal_iteratorIPKN3net9QuicFrameESt6vectorIS2_SaIS2_EEEC2ERKS4_(ptr noundef nonnull align 8 dereferenceable(8) %2, ptr noundef nonnull align 8 dereferenceable(8) %6) #13
  %7 = getelementptr inbounds nuw %"class.__gnu_cxx::__normal_iterator.27", ptr %2, i32 0, i32 0
  %8 = load ptr, ptr %7, align 8
  ret ptr %8
}

; Function Attrs: mustprogress nounwind uwtable
define linkonce_odr ptr @_ZNKSt6vectorIN3net9QuicFrameESaIS1_EE5beginEv(ptr noundef nonnull align 8 dereferenceable(24) %0) #2 comdat align 2 {
  %2 = alloca %"class.__gnu_cxx::__normal_iterator.27", align 8
  %3 = alloca ptr, align 8
  store ptr %0, ptr %3, align 8, !tbaa !75
  %4 = load ptr, ptr %3, align 8
  %5 = getelementptr inbounds nuw %"struct.std::_Vector_base", ptr %4, i32 0, i32 0
  %6 = getelementptr inbounds nuw %"struct.std::_Vector_base<net::QuicFrame, std::allocator<net::QuicFrame>>::_Vector_impl_data", ptr %5, i32 0, i32 0
  call void @_ZN9__gnu_cxx17__normal_iteratorIPKN3net9QuicFrameESt6vectorIS2_SaIS2_EEEC2ERKS4_(ptr noundef nonnull align 8 dereferenceable(8) %2, ptr noundef nonnull align 8 dereferenceable(8) %6) #13
  %7 = getelementptr inbounds nuw %"class.__gnu_cxx::__normal_iterator.27", ptr %2, i32 0, i32 0
  %8 = load ptr, ptr %7, align 8
  ret ptr %8
}

; Function Attrs: mustprogress nounwind uwtable
define linkonce_odr noundef zeroext i1 @_ZNKSt6vectorIN3net9QuicFrameESaIS1_EE5emptyEv(ptr noundef nonnull align 8 dereferenceable(24) %0) #2 comdat align 2 {
  %2 = alloca ptr, align 8
  %3 = alloca %"class.__gnu_cxx::__normal_iterator.27", align 8
  %4 = alloca %"class.__gnu_cxx::__normal_iterator.27", align 8
  store ptr %0, ptr %2, align 8, !tbaa !75
  %5 = load ptr, ptr %2, align 8
  call void @llvm.lifetime.start.p0(i64 8, ptr %3) #13
  %6 = call ptr @_ZNKSt6vectorIN3net9QuicFrameESaIS1_EE5beginEv(ptr noundef nonnull align 8 dereferenceable(24) %5) #13
  %7 = getelementptr inbounds nuw %"class.__gnu_cxx::__normal_iterator.27", ptr %3, i32 0, i32 0
  store ptr %6, ptr %7, align 8
  call void @llvm.lifetime.start.p0(i64 8, ptr %4) #13
  %8 = call ptr @_ZNKSt6vectorIN3net9QuicFrameESaIS1_EE3endEv(ptr noundef nonnull align 8 dereferenceable(24) %5) #13
  %9 = getelementptr inbounds nuw %"class.__gnu_cxx::__normal_iterator.27", ptr %4, i32 0, i32 0
  store ptr %8, ptr %9, align 8
  %10 = call noundef zeroext i1 @_ZN9__gnu_cxxeqIPKN3net9QuicFrameESt6vectorIS2_SaIS2_EEEEbRKNS_17__normal_iteratorIT_T0_EESD_(ptr noundef nonnull align 8 dereferenceable(8) %3, ptr noundef nonnull align 8 dereferenceable(8) %4) #13
  call void @llvm.lifetime.end.p0(i64 8, ptr %4) #13
  call void @llvm.lifetime.end.p0(i64 8, ptr %3) #13
  ret i1 %10
}

; Function Attrs: mustprogress nounwind uwtable
define noundef zeroext i1 @_ZNK3net19QuicPacketGenerator16HasPendingFramesEv(ptr noundef nonnull align 8 dereferenceable(472) %0) #2 align 2 {
  %2 = alloca ptr, align 8
  store ptr %0, ptr %2, align 8, !tbaa !3
  %3 = load ptr, ptr %2, align 8
  %4 = getelementptr inbounds nuw %"class.net::QuicPacketGenerator", ptr %3, i32 0, i32 4
  %5 = load i8, ptr %4, align 1, !tbaa !73, !range !80, !noundef !81
  %6 = trunc i8 %5 to i1
  br i1 %6, label %15, label %7

7:                                                ; preds = %1
  %8 = getelementptr inbounds nuw %"class.net::QuicPacketGenerator", ptr %3, i32 0, i32 5
  %9 = load i8, ptr %8, align 2, !tbaa !74, !range !80, !noundef !81
  %10 = trunc i8 %9 to i1
  br i1 %10, label %15, label %11

11:                                               ; preds = %7
  %12 = getelementptr inbounds nuw %"class.net::QuicPacketGenerator", ptr %3, i32 0, i32 2
  %13 = call noundef zeroext i1 @_ZNKSt6vectorIN3net9QuicFrameESaIS1_EE5emptyEv(ptr noundef nonnull align 8 dereferenceable(24) %12) #13
  %14 = xor i1 %13, true
  br label %15

15:                                               ; preds = %11, %7, %1
  %16 = phi i1 [ true, %7 ], [ true, %1 ], [ %14, %11 ]
  ret i1 %16
}

; Function Attrs: mustprogress uwtable
define noundef zeroext i1 @_ZNK3net19QuicPacketGenerator15HasQueuedFramesEv(ptr noundef nonnull align 8 dereferenceable(472) %0) #0 align 2 {
  %2 = alloca ptr, align 8
  store ptr %0, ptr %2, align 8, !tbaa !3
  %3 = load ptr, ptr %2, align 8
  %4 = getelementptr inbounds nuw %"class.net::QuicPacketGenerator", ptr %3, i32 0, i32 1
  %5 = call noundef zeroext i1 @_ZNK3net17QuicPacketCreator16HasPendingFramesEv(ptr noundef nonnull align 8 dereferenceable(312) %4)
  br i1 %5, label %8, label %6

6:                                                ; preds = %1
  %7 = call noundef zeroext i1 @_ZNK3net19QuicPacketGenerator16HasPendingFramesEv(ptr noundef nonnull align 8 dereferenceable(472) %3)
  br label %8

8:                                                ; preds = %6, %1
  %9 = phi i1 [ true, %1 ], [ %7, %6 ]
  ret i1 %9
}