; Function Attrs: mustprogress uwtable
define noundef zeroext i1 @_ZNK3net19QuicPacketGenerator15HasQueuedFramesEv(ptr noundef nonnull align 8 dereferenceable(472) %0) local_unnamed_addr #0 align 2 {
  %2 = getelementptr inbounds nuw i8, ptr %0, i64 8
  %3 = tail call noundef zeroext i1 @_ZNK3net17QuicPacketCreator16HasPendingFramesEv(ptr noundef nonnull align 8 dereferenceable(312) %2)
  br i1 %3, label %_ZNK3net19QuicPacketGenerator16HasPendingFramesEv.exit, label %4

4:                                                ; preds = %1
  %5 = getelementptr inbounds nuw i8, ptr %0, i64 345
  %6 = load i8, ptr %5, align 1, !tbaa !70, !range !67, !noundef !68
  %7 = trunc nuw i8 %6 to i1
  br i1 %7, label %_ZNK3net19QuicPacketGenerator16HasPendingFramesEv.exit, label %8

8:                                                ; preds = %4
  %9 = getelementptr inbounds nuw i8, ptr %0, i64 346
  %10 = load i8, ptr %9, align 2, !tbaa !71, !range !67, !noundef !68
  %11 = trunc nuw i8 %10 to i1
  br i1 %11, label %_ZNK3net19QuicPacketGenerator16HasPendingFramesEv.exit, label %12

12:                                               ; preds = %8
  %13 = getelementptr inbounds nuw i8, ptr %0, i64 320
  %14 = load ptr, ptr %13, align 8, !tbaa !72
  %15 = getelementptr inbounds nuw i8, ptr %0, i64 328
  %16 = load ptr, ptr %15, align 8, !tbaa !72
  %17 = icmp ne ptr %14, %16
  br label %_ZNK3net19QuicPacketGenerator16HasPendingFramesEv.exit

_ZNK3net19QuicPacketGenerator16HasPendingFramesEv.exit: ; preds = %12, %8, %4, %1
  %18 = phi i1 [ true, %1 ], [ true, %8 ], [ true, %4 ], [ %17, %12 ]
  ret i1 %18
}